target datalayout = "e-m:e-p270:32:32-p271:32:32-p272:64:64-i64:64-i128:128-f80:128-n8:16:32:64-S128"
target triple = "x86_64-pc-linux-gnu"

%struct.jit_State = type { %struct.GCtrace, ptr, ptr, ptr, ptr, ptr, ptr, i32, i32, i32, i8, i8, %struct.IRType1, i8, %struct.FoldState, ptr, i32, i32, i32, i32, i32, i32, i32, [1 x i32], [5 x %union.TValue], [3 x %union.TValue], ptr, i32, i32, i32, i32, ptr, ptr, i32, i32, i8, ptr, i32, i32, i16, [101 x i16], [258 x i32], [15 x i32], [16 x ptr], [64 x %struct.HotPenalty], i32, [16 x %struct.BPropEntry], i32, %struct.ScEvEntry, ptr, i32, i32, i32, ptr, i32, i32, ptr, ptr, ptr, i64, i64, %union.TValue, ptr, i32, i32 }
%struct.GCtrace = type { %struct.GCRef, i8, i8, i16, i32, i32, %struct.GCRef, ptr, i32, i32, ptr, ptr, %struct.GCRef, %struct.MRef, i32, i32, ptr, i32, i16, i16, i16, i16, i16, i16, i16, i8, i8, i8, i8 }
%struct.GCRef = type { i64 }
%struct.MRef = type { i64 }
%struct.IRType1 = type { i8 }
%struct.FoldState = type { %union.IRIns, [2 x %union.IRIns], [2 x %union.IRIns] }
%union.IRIns = type { %struct.GCRef }
%struct.HotPenalty = type { %struct.MRef, i16, i16 }
%struct.BPropEntry = type { i16, i16, i32 }
%struct.ScEvEntry = type { %struct.MRef, i16, i16, i16, i16, %struct.IRType1, i8 }
%union.TValue = type { i64 }
%struct.anon = type { i16, i16, i16, i16 }

; Function Attrs: nounwind uwtable
define internal i32 @fold_comm_swap(ptr noundef %0) #0 {
  %2 = alloca i32, align 4
  %3 = alloca ptr, align 8
  %4 = alloca i16, align 2
  store ptr %0, ptr %3, align 8, !tbaa !4
  %5 = load ptr, ptr %3, align 8, !tbaa !4
  %6 = getelementptr inbounds nuw %struct.jit_State, ptr %5, i32 0, i32 14
  %7 = getelementptr inbounds nuw %struct.FoldState, ptr %6, i32 0, i32 0
  %8 = getelementptr inbounds nuw %struct.anon, ptr %7, i32 0, i32 0
  %9 = load i16, ptr %8, align 8, !tbaa !29
  %10 = zext i16 %9 to i32
  %11 = load ptr, ptr %3, align 8, !tbaa !4
  %12 = getelementptr inbounds nuw %struct.jit_State, ptr %11, i32 0, i32 14
  %13 = getelementptr inbounds nuw %struct.FoldState, ptr %12, i32 0, i32 0
  %14 = getelementptr inbounds nuw %struct.anon, ptr %13, i32 0, i32 1
  %15 = load i16, ptr %14, align 2, !tbaa !29
  %16 = zext i16 %15 to i32
  %17 = icmp slt i32 %10, %16
  br i1 %17, label %18, label %38

18:                                               ; preds = %1
  call void @llvm.lifetime.start.p0(i64 2, ptr %4) #8
  %19 = load ptr, ptr %3, align 8, !tbaa !4
  %20 = getelementptr inbounds nuw %struct.jit_State, ptr %19, i32 0, i32 14
  %21 = getelementptr inbounds nuw %struct.FoldState, ptr %20, i32 0, i32 0
  %22 = getelementptr inbounds nuw %struct.anon, ptr %21, i32 0, i32 0
  %23 = load i16, ptr %22, align 8, !tbaa !29
  store i16 %23, ptr %4, align 2, !tbaa !35
  %24 = load ptr, ptr %3, align 8, !tbaa !4
  %25 = getelementptr inbounds nuw %struct.jit_State, ptr %24, i32 0, i32 14
  %26 = getelementptr inbounds nuw %struct.FoldState, ptr %25, i32 0, i32 0
  %27 = getelementptr inbounds nuw %struct.anon, ptr %26, i32 0, i32 1
  %28 = load i16, ptr %27, align 2, !tbaa !29
  %29 = load ptr, ptr %3, align 8, !tbaa !4
  %30 = getelementptr inbounds nuw %struct.jit_State, ptr %29, i32 0, i32 14
  %31 = getelementptr inbounds nuw %struct.FoldState, ptr %30, i32 0, i32 0
  %32 = getelementptr inbounds nuw %struct.anon, ptr %31, i32 0, i32 0
  store i16 %28, ptr %32, align 8, !tbaa !29
  %33 = load i16, ptr %4, align 2, !tbaa !35
  %34 = load ptr, ptr %3, align 8, !tbaa !4
  %35 = getelementptr inbounds nuw %struct.jit_State, ptr %34, i32 0, i32 14
  %36 = getelementptr inbounds nuw %struct.FoldState, ptr %35, i32 0, i32 0
  %37 = getelementptr inbounds nuw %struct.anon, ptr %36, i32 0, i32 1
  store i16 %33, ptr %37, align 2, !tbaa !29
  store i32 1, ptr %2, align 4
  call void @llvm.lifetime.end.p0(i64 2, ptr %4) #8
  br label %39

38:                                               ; preds = %1
  store i32 0, ptr %2, align 4
  br label %39

39:                                               ; preds = %38, %18
  %40 = load i32, ptr %2, align 4
  ret i32 %40
}