; Function Attrs: mustprogress nofree norecurse nosync nounwind willreturn memory(argmem: readwrite) uwtable
define internal range(i32 0, 2) i32 @fold_comm_swap(ptr noundef captures(none) %0) #5 {
  %2 = getelementptr inbounds nuw i8, ptr %0, i64 184
  %3 = load i16, ptr %2, align 8, !tbaa !28
  %4 = getelementptr inbounds nuw i8, ptr %0, i64 186
  %5 = load i16, ptr %4, align 2, !tbaa !28
  %6 = icmp ult i16 %3, %5
  br i1 %6, label %7, label %8

7:                                                ; preds = %1
  store i16 %5, ptr %2, align 8, !tbaa !28
  store i16 %3, ptr %4, align 2, !tbaa !28
  br label %8

8:                                                ; preds = %1, %7
  %.0 = phi i32 [ 1, %7 ], [ 0, %1 ]
  ret i32 %.0
}